; Function Attrs: nounwind uwtable
define noundef ptr @Abc_NtkCloneObj(ptr noundef readonly captures(none) %0) local_unnamed_addr #0 {
  %2 = load ptr, ptr %0, align 8, !tbaa !24
  %3 = getelementptr inbounds nuw i8, ptr %0, i64 20
  %4 = load i32, ptr %3, align 4
  %5 = and i32 %4, 15
  %6 = tail call ptr @Abc_NtkCreateObj(ptr noundef %2, i32 noundef %5)
  %7 = getelementptr i8, ptr %0, i64 28
  %.val11 = load i32, ptr %7, align 4, !tbaa !59
  %8 = icmp sgt i32 %.val11, 0
  br i1 %8, label %.lr.ph, label %.critedge

.lr.ph:                                           ; preds = %1
  %9 = getelementptr i8, ptr %0, i64 32
  br label %10

10:                                               ; preds = %.lr.ph, %10
  %indvars.iv = phi i64 [ 0, %.lr.ph ], [ %indvars.iv.next, %10 ]
  %.val9 = load ptr, ptr %0, align 8, !tbaa !24
  %.val10 = load ptr, ptr %9, align 8, !tbaa !30
  %11 = getelementptr i8, ptr %.val9, i64 32
  %.val9.val = load ptr, ptr %11, align 8, !tbaa !31
  %12 = getelementptr i8, ptr %.val9.val, i64 8
  %.val9.val.val = load ptr, ptr %12, align 8, !tbaa !35
  %13 = getelementptr inbounds nuw i32, ptr %.val10, i64 %indvars.iv
  %14 = load i32, ptr %13, align 4, !tbaa !37
  %15 = sext i32 %14 to i64
  %16 = getelementptr inbounds ptr, ptr %.val9.val.val, i64 %15
  %17 = load ptr, ptr %16, align 8, !tbaa !36
  tail call void @Abc_ObjAddFanin(ptr noundef %6, ptr noundef %17) #10
  %indvars.iv.next = add nuw nsw i64 %indvars.iv, 1
  %.val = load i32, ptr %7, align 4, !tbaa !59
  %18 = sext i32 %.val to i64
  %19 = icmp slt i64 %indvars.iv.next, %18
  br i1 %19, label %10, label %.critedge, !llvm.loop !63

.critedge:                                        ; preds = %10, %1
  ret ptr %6
}